; Function Attrs: null_pointer_is_valid sspstrong uwtable
define internal i32 @get_normal_ldap_pdu_len(ptr readnone captures(none) %0, ptr noundef %1, i32 noundef %2, ptr readnone captures(none) %3) #0 {
  %5 = alloca i32, align 4
  %6 = alloca i8, align 1
  call void @llvm.lifetime.start.p0(i64 4, ptr nonnull %5) #14
  call void @llvm.lifetime.start.p0(i64 1, ptr nonnull %6) #14
  %7 = add i32 %2, 1
  %8 = call i32 @get_ber_length(ptr noundef %1, i32 noundef %7, ptr noundef nonnull %5, ptr noundef nonnull %6)
  %9 = load i32, ptr %5, align 4
  %10 = sub i32 %8, %2
  %11 = add i32 %10, %9
  call void @llvm.lifetime.end.p0(i64 1, ptr nonnull %6) #14
  call void @llvm.lifetime.end.p0(i64 4, ptr nonnull %5) #14
  ret i32 %11
}